; Function Attrs: nounwind uwtable
define hidden ptr @SDL_GetAudioStreamOutputChannelMap_REAL(ptr noundef readonly captures(address_is_null) %0, ptr noundef writeonly captures(address_is_null) %1) local_unnamed_addr #2 {
  %.not = icmp eq ptr %0, null
  br i1 %.not, label %11, label %3

3:                                                ; preds = %2
  %4 = load ptr, ptr %0, align 8
  tail call void @SDL_LockMutex_REAL(ptr noundef %4) #11
  %5 = getelementptr inbounds nuw i8, ptr %0, i64 64
  %6 = load i32, ptr %5, align 4
  %7 = getelementptr inbounds nuw i8, ptr %0, i64 80
  %8 = load ptr, ptr %7, align 8
  %9 = tail call ptr @SDL_ChannelMapDup(ptr noundef %8, i32 noundef %6) #11
  %10 = load ptr, ptr %0, align 8
  tail call void @SDL_UnlockMutex_REAL(ptr noundef %10) #11
  br label %11

11:                                               ; preds = %3, %2
  %.09 = phi ptr [ %9, %3 ], [ null, %2 ]
  %.0 = phi i32 [ %6, %3 ], [ 0, %2 ]
  %.not12 = icmp eq ptr %1, null
  br i1 %.not12, label %13, label %12

12:                                               ; preds = %11
  store i32 %.0, ptr %1, align 4
  br label %13

13:                                               ; preds = %12, %11
  ret ptr %.09
}